target datalayout = "e-m:e-p270:32:32-p271:32:32-p272:64:64-i64:64-i128:128-f80:128-n8:16:32:64-S128"
target triple = "x86_64-pc-linux-gnu"

@.str = private unnamed_addr constant [161 x i8] c"generated/home/dtcxzyw/WorkSpace/Projects/compilers/llvm-opt-benchmark/bench/open3d/Open3D/cpp/open3d/visualization/visualizer/VisualizerWithVertexSelection.cpp\00", align 1
@__glewBindFramebuffer = external global ptr, align 8
@__glewGenFramebuffers = external global ptr, align 8
@__GLEW_ARB_framebuffer_object = external global i8, align 1
@__PRETTY_FUNCTION__._ZN6open3d13visualization12_GLOBAL__N_115BindFramebufferEii = private unnamed_addr constant [77 x i8] c"bool open3d::visualization::(anonymous namespace)::BindFramebuffer(int, int)\00", align 1
@.str.90 = private unnamed_addr constant [89 x i8] c"[BindFramebuffwer] Your GPU does not provide framebuffer objects. Use a texture instead.\00", align 1
@__glewGenRenderbuffers = external global ptr, align 8
@__glewBindRenderbuffer = external global ptr, align 8
@__glewRenderbufferStorage = external global ptr, align 8
@__glewFramebufferRenderbuffer = external global ptr, align 8
@__glewFramebufferTexture2D = external global ptr, align 8
@__const._ZN6open3d13visualization12_GLOBAL__N_115BindFramebufferEii.DrawBuffers = private unnamed_addr constant [1 x i32] [i32 36064], align 4
@__glewDrawBuffers = external global ptr, align 8
@__glewCheckFramebufferStatus = external global ptr, align 8
@.str.91 = private unnamed_addr constant [47 x i8] c"[BindFramebuffer] Something is wrong with FBO.\00", align 1

; Function Attrs: mustprogress ssp uwtable
define internal noundef zeroext i1 @_ZN6open3d13visualization12_GLOBAL__N_115BindFramebufferEii(i32 noundef %0, i32 noundef %1) #1 {
  %3 = alloca i1, align 1
  %4 = alloca i32, align 4
  %5 = alloca i32, align 4
  %6 = alloca i32, align 4
  %7 = alloca i32, align 4
  %8 = alloca i32, align 4
  %9 = alloca i32, align 4
  %10 = alloca [1 x i32], align 4
  store i32 %0, ptr %4, align 4, !tbaa !99
  store i32 %1, ptr %5, align 4, !tbaa !99
  call void @llvm.lifetime.start.p0(i64 4, ptr %6) #8
  store i32 0, ptr %6, align 4, !tbaa !99
  %11 = load ptr, ptr @__glewGenFramebuffers, align 8, !tbaa !233
  call void %11(i32 noundef 1, ptr noundef %6)
  %12 = load ptr, ptr @__glewBindFramebuffer, align 8, !tbaa !233
  %13 = load i32, ptr %6, align 4, !tbaa !99
  call void %12(i32 noundef 36160, i32 noundef %13)
  call void @llvm.lifetime.start.p0(i64 4, ptr %7) #8
  call void @glGenTextures(i32 noundef 1, ptr noundef %7)
  %14 = load i32, ptr %7, align 4, !tbaa !99
  call void @glBindTexture(i32 noundef 3553, i32 noundef %14)
  %15 = load i32, ptr %4, align 4, !tbaa !99
  %16 = load i32, ptr %5, align 4, !tbaa !99
  call void @glTexImage2D(i32 noundef 3553, i32 noundef 0, i32 noundef 6408, i32 noundef %15, i32 noundef %16, i32 noundef 0, i32 noundef 6408, i32 noundef 5121, ptr noundef null)
  call void @glTexParameteri(i32 noundef 3553, i32 noundef 10240, i32 noundef 9728)
  call void @glTexParameteri(i32 noundef 3553, i32 noundef 10241, i32 noundef 9728)
  call void @glTexParameteri(i32 noundef 3553, i32 noundef 10242, i32 noundef 33071)
  call void @glTexParameteri(i32 noundef 3553, i32 noundef 10243, i32 noundef 33071)
  %17 = load i8, ptr @__GLEW_ARB_framebuffer_object, align 1, !tbaa !176
  %18 = icmp ne i8 %17, 0
  br i1 %18, label %20, label %19

19:                                               ; preds = %2
  call void @_ZN6open3d7utility6Logger11LogWarning_IJEEEvPKciS4_S4_DpOT_(ptr noundef @.str, i32 noundef 57, ptr noundef @__PRETTY_FUNCTION__._ZN6open3d13visualization12_GLOBAL__N_115BindFramebufferEii, ptr noundef @.str.90)
  store i1 false, ptr %3, align 1
  store i32 1, ptr %8, align 4
  br label %39

20:                                               ; preds = %2
  call void @llvm.lifetime.start.p0(i64 4, ptr %9) #8
  %21 = load ptr, ptr @__glewGenRenderbuffers, align 8, !tbaa !233
  call void %21(i32 noundef 1, ptr noundef %9)
  %22 = load ptr, ptr @__glewBindRenderbuffer, align 8, !tbaa !233
  %23 = load i32, ptr %9, align 4, !tbaa !99
  call void %22(i32 noundef 36161, i32 noundef %23)
  %24 = load ptr, ptr @__glewRenderbufferStorage, align 8, !tbaa !233
  %25 = load i32, ptr %4, align 4, !tbaa !99
  %26 = load i32, ptr %5, align 4, !tbaa !99
  call void %24(i32 noundef 36161, i32 noundef 6402, i32 noundef %25, i32 noundef %26)
  %27 = load ptr, ptr @__glewFramebufferRenderbuffer, align 8, !tbaa !233
  %28 = load i32, ptr %9, align 4, !tbaa !99
  call void %27(i32 noundef 36160, i32 noundef 36096, i32 noundef 36161, i32 noundef %28)
  %29 = load ptr, ptr @__glewFramebufferTexture2D, align 8, !tbaa !233
  %30 = load i32, ptr %7, align 4, !tbaa !99
  call void %29(i32 noundef 36160, i32 noundef 36064, i32 noundef 3553, i32 noundef %30, i32 noundef 0)
  call void @llvm.lifetime.start.p0(i64 4, ptr %10) #8
  call void @llvm.memcpy.p0.p0.i64(ptr align 4 %10, ptr align 4 @__const._ZN6open3d13visualization12_GLOBAL__N_115BindFramebufferEii.DrawBuffers, i64 4, i1 false)
  %31 = load ptr, ptr @__glewDrawBuffers, align 8, !tbaa !233
  %32 = getelementptr inbounds [1 x i32], ptr %10, i64 0, i64 0
  call void %31(i32 noundef 1, ptr noundef %32)
  %33 = load ptr, ptr @__glewCheckFramebufferStatus, align 8, !tbaa !233
  %34 = call i32 %33(i32 noundef 36160)
  %35 = icmp ne i32 %34, 36053
  br i1 %35, label %36, label %37

36:                                               ; preds = %20
  call void @_ZN6open3d7utility6Logger11LogWarning_IJEEEvPKciS4_S4_DpOT_(ptr noundef @.str, i32 noundef 71, ptr noundef @__PRETTY_FUNCTION__._ZN6open3d13visualization12_GLOBAL__N_115BindFramebufferEii, ptr noundef @.str.91)
  store i1 false, ptr %3, align 1
  store i32 1, ptr %8, align 4
  br label %38

37:                                               ; preds = %20
  store i1 true, ptr %3, align 1
  store i32 1, ptr %8, align 4
  br label %38

38:                                               ; preds = %37, %36
  call void @llvm.lifetime.end.p0(i64 4, ptr %10) #8
  call void @llvm.lifetime.end.p0(i64 4, ptr %9) #8
  br label %39

39:                                               ; preds = %38, %19
  call void @llvm.lifetime.end.p0(i64 4, ptr %7) #8
  call void @llvm.lifetime.end.p0(i64 4, ptr %6) #8
  %40 = load i1, ptr %3, align 1
  ret i1 %40
}