; Function Attrs: mustprogress ssp uwtable
define internal fastcc noundef zeroext i1 @_ZN6open3d13visualization12_GLOBAL__N_115BindFramebufferEii(i32 noundef %0, i32 noundef %1) unnamed_addr #1 {
  %3 = alloca i32, align 4
  %4 = alloca i32, align 4
  %5 = alloca i32, align 4
  %6 = alloca [1 x i32], align 4
  call void @llvm.lifetime.start.p0(i64 4, ptr nonnull %3) #32
  store i32 0, ptr %3, align 4, !tbaa !19
  %7 = load ptr, ptr @__glewGenFramebuffers, align 8, !tbaa !429
  call void %7(i32 noundef 1, ptr noundef nonnull %3)
  %8 = load ptr, ptr @__glewBindFramebuffer, align 8, !tbaa !429
  %9 = load i32, ptr %3, align 4, !tbaa !19
  call void %8(i32 noundef 36160, i32 noundef %9)
  call void @llvm.lifetime.start.p0(i64 4, ptr nonnull %4) #32
  call void @glGenTextures(i32 noundef 1, ptr noundef nonnull %4)
  %10 = load i32, ptr %4, align 4, !tbaa !19
  call void @glBindTexture(i32 noundef 3553, i32 noundef %10)
  call void @glTexImage2D(i32 noundef 3553, i32 noundef 0, i32 noundef 6408, i32 noundef %0, i32 noundef %1, i32 noundef 0, i32 noundef 6408, i32 noundef 5121, ptr noundef null)
  call void @glTexParameteri(i32 noundef 3553, i32 noundef 10240, i32 noundef 9728)
  call void @glTexParameteri(i32 noundef 3553, i32 noundef 10241, i32 noundef 9728)
  call void @glTexParameteri(i32 noundef 3553, i32 noundef 10242, i32 noundef 33071)
  call void @glTexParameteri(i32 noundef 3553, i32 noundef 10243, i32 noundef 33071)
  %11 = load i8, ptr @__GLEW_ARB_framebuffer_object, align 1, !tbaa !18
  %.not = icmp eq i8 %11, 0
  br i1 %.not, label %12, label %13

12:                                               ; preds = %2
  call void @_ZN6open3d7utility6Logger11LogWarning_IJEEEvPKciS4_S4_DpOT_(ptr noundef nonnull @.str, i32 noundef 57, ptr noundef nonnull @__PRETTY_FUNCTION__._ZN6open3d13visualization12_GLOBAL__N_115BindFramebufferEii, ptr noundef nonnull @.str.90)
  br label %27

13:                                               ; preds = %2
  call void @llvm.lifetime.start.p0(i64 4, ptr nonnull %5) #32
  %14 = load ptr, ptr @__glewGenRenderbuffers, align 8, !tbaa !429
  call void %14(i32 noundef 1, ptr noundef nonnull %5)
  %15 = load ptr, ptr @__glewBindRenderbuffer, align 8, !tbaa !429
  %16 = load i32, ptr %5, align 4, !tbaa !19
  call void %15(i32 noundef 36161, i32 noundef %16)
  %17 = load ptr, ptr @__glewRenderbufferStorage, align 8, !tbaa !429
  call void %17(i32 noundef 36161, i32 noundef 6402, i32 noundef %0, i32 noundef %1)
  %18 = load ptr, ptr @__glewFramebufferRenderbuffer, align 8, !tbaa !429
  %19 = load i32, ptr %5, align 4, !tbaa !19
  call void %18(i32 noundef 36160, i32 noundef 36096, i32 noundef 36161, i32 noundef %19)
  %20 = load ptr, ptr @__glewFramebufferTexture2D, align 8, !tbaa !429
  %21 = load i32, ptr %4, align 4, !tbaa !19
  call void %20(i32 noundef 36160, i32 noundef 36064, i32 noundef 3553, i32 noundef %21, i32 noundef 0)
  call void @llvm.lifetime.start.p0(i64 4, ptr nonnull %6) #32
  store i32 36064, ptr %6, align 4
  %22 = load ptr, ptr @__glewDrawBuffers, align 8, !tbaa !429
  call void %22(i32 noundef 1, ptr noundef nonnull %6)
  %23 = load ptr, ptr @__glewCheckFramebufferStatus, align 8, !tbaa !429
  %24 = call i32 %23(i32 noundef 36160)
  %.not4 = icmp eq i32 %24, 36053
  br i1 %.not4, label %26, label %25

25:                                               ; preds = %13
  call void @_ZN6open3d7utility6Logger11LogWarning_IJEEEvPKciS4_S4_DpOT_(ptr noundef nonnull @.str, i32 noundef 71, ptr noundef nonnull @__PRETTY_FUNCTION__._ZN6open3d13visualization12_GLOBAL__N_115BindFramebufferEii, ptr noundef nonnull @.str.91)
  br label %26

26:                                               ; preds = %13, %25
  call void @llvm.lifetime.end.p0(i64 4, ptr nonnull %6) #32
  call void @llvm.lifetime.end.p0(i64 4, ptr nonnull %5) #32
  br label %27

27:                                               ; preds = %26, %12
  %.0 = phi i1 [ %.not4, %26 ], [ false, %12 ]
  call void @llvm.lifetime.end.p0(i64 4, ptr nonnull %4) #32
  call void @llvm.lifetime.end.p0(i64 4, ptr nonnull %3) #32
  ret i1 %.0
}